target datalayout = "e-m:e-p270:32:32-p271:32:32-p272:64:64-i64:64-i128:128-f80:128-n8:16:32:64-S128"
target triple = "x86_64-pc-linux-gnu"

%struct.curl_trc_feat = type { ptr, i32 }
%struct.Curl_easy = type { i32, i64, i64, ptr, %struct.Curl_llist_node, %struct.Curl_llist_node, i32, i32, %struct.Curl_message, %struct.easy_pollset, %struct.Names, ptr, ptr, ptr, ptr, %struct.SingleRequest, %struct.UserDefined, ptr, ptr, ptr, %struct.Progress, %struct.UrlState, ptr, %struct.PureInfo, %struct.curl_tlssessioninfo }
%struct.Curl_llist_node = type { ptr, ptr, ptr, ptr }
%struct.Curl_message = type { %struct.Curl_llist_node, %struct.CURLMsg }
%struct.CURLMsg = type { i32, ptr, %union.anon }
%union.anon = type { ptr }
%struct.easy_pollset = type { [5 x i32], i32, [5 x i8] }
%struct.Names = type { ptr, i32 }
%struct.SingleRequest = type <{ i64, i64, i64, i64, %struct.curltime, i32, i32, i32, i32, i64, i32, i32, i8, i8, [2 x i8], i32, ptr, ptr, %struct.bufq, i64, i64, ptr, ptr, %union.anon.0, ptr, i8, i32, [3 x i8] }>
%struct.curltime = type { i64, i32 }
%struct.bufq = type { ptr, ptr, ptr, ptr, i64, i64, i64, i32 }
%union.anon.0 = type { ptr }
%struct.UserDefined = type <{ ptr, ptr, ptr, ptr, ptr, ptr, i64, i64, i64, ptr, ptr, i64, ptr, ptr, ptr, ptr, ptr, ptr, ptr, ptr, ptr, ptr, ptr, ptr, ptr, ptr, ptr, ptr, ptr, ptr, ptr, ptr, ptr, ptr, ptr, i64, i64, i64, i64, i64, i64, i64, i64, i64, ptr, ptr, %struct.curl_mimepart, ptr, ptr, ptr, i64, %struct.ssl_config_data, %struct.ssl_config_data, ptr, i16, i8, i8, %struct.ssl_general_config, i32, i32, i32, [4 x i8], ptr, ptr, i64, i32, i8, i8, i8, i8, ptr, ptr, ptr, i32, [4 x i8], [74 x ptr], [8 x ptr], i32, i32, i32, [4 x i8], ptr, i32, [4 x i8], ptr, ptr, ptr, ptr, ptr, i32, i32, i32, i32, i32, i32, i32, i32, i64, ptr, ptr, i64, ptr, i64, ptr, ptr, ptr, ptr, i32, i16, i16, i16, i8, i8, i8, i8, i8, i8, i8, i8, i64, [6 x i8] }>
%struct.curl_mimepart = type { ptr, ptr, i32, i32, ptr, ptr, ptr, ptr, ptr, ptr, ptr, ptr, ptr, ptr, ptr, i64, %struct.mime_state, ptr, %struct.mime_encoder_state, i64 }
%struct.mime_state = type { i32, ptr, i64 }
%struct.mime_encoder_state = type { i64, i64, i64, [256 x i8] }
%struct.ssl_config_data = type { %struct.ssl_primary_config, i64, ptr, ptr, ptr, ptr, ptr, ptr, ptr, i16 }
%struct.ssl_primary_config = type { ptr, ptr, ptr, ptr, ptr, ptr, ptr, ptr, ptr, ptr, ptr, ptr, ptr, ptr, i8, i32, i8, i8 }
%struct.ssl_general_config = type { i32 }
%struct.Progress = type { i64, %struct.pgrs_dir, %struct.pgrs_dir, i64, i64, i32, i32, i64, i64, i64, i64, i64, i64, i64, i64, i64, %struct.curltime, %struct.curltime, %struct.curltime, %struct.curltime, %struct.curltime, [6 x i64], [6 x %struct.curltime], i32, i8 }
%struct.pgrs_dir = type { i64, i64, i64, %struct.pgrs_measure }
%struct.pgrs_measure = type { %struct.curltime, i64 }
%struct.UrlState = type { %struct.curltime, i64, i64, %struct.dynbuf, ptr, i64, ptr, i32, i32, i32, ptr, i32, i64, i32, ptr, %struct.digestdata, %struct.digestdata, %struct.auth, %struct.auth, %struct.Curl_async, ptr, i8, %struct.curltime, %struct.Curl_tree, %struct.Curl_llist, [15 x %struct.time_node], ptr, ptr, i64, i64, i64, i64, [32 x i8], i64, ptr, ptr, ptr, %struct.urlpieces, ptr, ptr, ptr, ptr, ptr, i64, %struct.dynbuf, %struct.Curl_llist, [2 x %struct.curl_header], ptr, i32, ptr, ptr, %struct.store_netrc, %struct.dynamically_allocated_data, i8, i8, i8, i8, i32 }
%struct.digestdata = type { ptr, ptr, ptr, ptr, ptr, ptr, i32, i8, i8 }
%struct.auth = type { i64, i64, i64, i8 }
%struct.Curl_async = type { ptr, ptr, ptr, ptr, i32, i32, i8 }
%struct.Curl_tree = type { ptr, ptr, ptr, ptr, %struct.curltime, ptr }
%struct.time_node = type { %struct.Curl_llist_node, %struct.curltime, i32 }
%struct.urlpieces = type { ptr, ptr, ptr, ptr, ptr, ptr, ptr, ptr }
%struct.dynbuf = type { ptr, i64, i64, i64 }
%struct.Curl_llist = type { ptr, ptr, ptr, i64 }
%struct.curl_header = type { ptr, ptr, i64, i64, i32, ptr }
%struct.store_netrc = type { %struct.dynbuf, ptr, i8 }
%struct.dynamically_allocated_data = type { ptr, ptr, ptr, ptr, ptr, ptr, ptr, ptr, ptr, ptr, ptr, ptr, ptr, ptr }
%struct.PureInfo = type { i32, i32, i32, i64, i64, i64, i64, i64, i64, i64, ptr, ptr, i64, i32, %struct.ip_quadruple, i32, ptr, i32, %struct.curl_certinfo, i32, i8 }
%struct.ip_quadruple = type { [46 x i8], [46 x i8], i32, i32 }
%struct.curl_certinfo = type { i32, ptr }
%struct.curl_tlssessioninfo = type { i32, ptr }
%struct.websocket = type { ptr, %struct.ws_decoder, %struct.ws_encoder, %struct.bufq, %struct.bufq, %struct.curl_ws_frame, i64 }
%struct.ws_decoder = type { i32, i32, i64, i64, [10 x i8], i32, i32, i32 }
%struct.ws_encoder = type { i64, i64, i32, [4 x i8], i8, i8 }
%struct.curl_ws_frame = type { i32, i32, i64, i64, i64 }

@Curl_trc_feat_ws = external global %struct.curl_trc_feat, align 8
@.str.56 = private unnamed_addr constant [41 x i8] c"flush EAGAIN, %zu bytes remain in buffer\00", align 1
@.str.57 = private unnamed_addr constant [26 x i8] c"WS: flush, write error %d\00", align 1
@.str.58 = private unnamed_addr constant [22 x i8] c"WS: flushed %zu bytes\00", align 1

; Function Attrs: nounwind uwtable
define internal i32 @ws_flush(ptr noundef %0, ptr noundef %1, i1 noundef zeroext %2) #0 {
  %4 = alloca i32, align 4
  %5 = alloca ptr, align 8
  %6 = alloca ptr, align 8
  %7 = alloca i8, align 1
  %8 = alloca i32, align 4
  %9 = alloca ptr, align 8
  %10 = alloca i64, align 8
  %11 = alloca i64, align 8
  %12 = alloca i32, align 4
  store ptr %0, ptr %5, align 8, !tbaa !3
  store ptr %1, ptr %6, align 8, !tbaa !92
  %13 = zext i1 %2 to i8
  store i8 %13, ptr %7, align 1, !tbaa !147
  %14 = load ptr, ptr %6, align 8, !tbaa !92
  %15 = getelementptr inbounds nuw %struct.websocket, ptr %14, i32 0, i32 4
  %16 = call zeroext i1 @Curl_bufq_is_empty(ptr noundef %15)
  br i1 %16, label %161, label %17

17:                                               ; preds = %3
  call void @llvm.lifetime.start.p0(i64 4, ptr %8) #6
  call void @llvm.lifetime.start.p0(i64 8, ptr %9) #6
  call void @llvm.lifetime.start.p0(i64 8, ptr %10) #6
  call void @llvm.lifetime.start.p0(i64 8, ptr %11) #6
  br label %18

18:                                               ; preds = %156, %17
  %19 = load ptr, ptr %6, align 8, !tbaa !92
  %20 = getelementptr inbounds nuw %struct.websocket, ptr %19, i32 0, i32 4
  %21 = call zeroext i1 @Curl_bufq_peek(ptr noundef %20, ptr noundef %9, ptr noundef %10)
  br i1 %21, label %22, label %157

22:                                               ; preds = %18
  %23 = load i8, ptr %7, align 1, !tbaa !147, !range !126, !noundef !127
  %24 = trunc i8 %23 to i1
  br i1 %24, label %25, label %38

25:                                               ; preds = %22
  %26 = load ptr, ptr %5, align 8, !tbaa !3
  %27 = load ptr, ptr %6, align 8, !tbaa !92
  %28 = load ptr, ptr %9, align 8, !tbaa !20
  %29 = load i64, ptr %10, align 8, !tbaa !17
  %30 = call i32 @ws_send_raw_blocking(ptr noundef %26, ptr noundef %27, ptr noundef %28, i64 noundef %29)
  store i32 %30, ptr %8, align 4, !tbaa !10
  %31 = load i32, ptr %8, align 4, !tbaa !10
  %32 = icmp ne i32 %31, 0
  br i1 %32, label %33, label %34

33:                                               ; preds = %25
  br label %36

34:                                               ; preds = %25
  %35 = load i64, ptr %10, align 8, !tbaa !17
  br label %36

36:                                               ; preds = %34, %33
  %37 = phi i64 [ 0, %33 ], [ %35, %34 ]
  store i64 %37, ptr %11, align 8, !tbaa !17
  br label %70

38:                                               ; preds = %22
  %39 = load ptr, ptr %5, align 8, !tbaa !3
  %40 = getelementptr inbounds nuw %struct.Curl_easy, ptr %39, i32 0, i32 16
  %41 = getelementptr inbounds nuw %struct.UserDefined, ptr %40, i32 0, i32 119
  %42 = load i64, ptr %41, align 2
  %43 = and i64 %42, 1
  %44 = trunc i64 %43 to i32
  %45 = icmp ne i32 %44, 0
  br i1 %45, label %49, label %46

46:                                               ; preds = %38
  %47 = load ptr, ptr %5, align 8, !tbaa !3
  %48 = call zeroext i1 @Curl_is_in_callback(ptr noundef %47)
  br i1 %48, label %49, label %54

49:                                               ; preds = %46, %38
  %50 = load ptr, ptr %5, align 8, !tbaa !3
  %51 = load ptr, ptr %9, align 8, !tbaa !20
  %52 = load i64, ptr %10, align 8, !tbaa !17
  %53 = call i32 @Curl_senddata(ptr noundef %50, ptr noundef %51, i64 noundef %52, ptr noundef %11)
  store i32 %53, ptr %8, align 4, !tbaa !10
  br label %69

54:                                               ; preds = %46
  %55 = load ptr, ptr %5, align 8, !tbaa !3
  %56 = load ptr, ptr %9, align 8, !tbaa !20
  %57 = load i64, ptr %10, align 8, !tbaa !17
  %58 = call i32 @Curl_xfer_send(ptr noundef %55, ptr noundef %56, i64 noundef %57, i1 noundef zeroext false, ptr noundef %11)
  store i32 %58, ptr %8, align 4, !tbaa !10
  %59 = load i32, ptr %8, align 4, !tbaa !10
  %60 = icmp ne i32 %59, 0
  br i1 %60, label %68, label %61

61:                                               ; preds = %54
  %62 = load i64, ptr %11, align 8, !tbaa !17
  %63 = icmp ne i64 %62, 0
  br i1 %63, label %68, label %64

64:                                               ; preds = %61
  %65 = load i64, ptr %10, align 8, !tbaa !17
  %66 = icmp ne i64 %65, 0
  br i1 %66, label %67, label %68

67:                                               ; preds = %64
  store i32 81, ptr %8, align 4, !tbaa !10
  br label %68

68:                                               ; preds = %67, %64, %61, %54
  br label %69

69:                                               ; preds = %68, %49
  br label %70

70:                                               ; preds = %69, %36
  %71 = load i32, ptr %8, align 4, !tbaa !10
  %72 = icmp eq i32 %71, 81
  br i1 %72, label %73, label %112

73:                                               ; preds = %70
  br label %74

74:                                               ; preds = %73
  %75 = load ptr, ptr %5, align 8, !tbaa !3
  %76 = icmp ne ptr %75, null
  br i1 %76, label %77, label %108

77:                                               ; preds = %74
  %78 = load ptr, ptr %5, align 8, !tbaa !3
  %79 = getelementptr inbounds nuw %struct.Curl_easy, ptr %78, i32 0, i32 16
  %80 = getelementptr inbounds nuw %struct.UserDefined, ptr %79, i32 0, i32 119
  %81 = load i64, ptr %80, align 2
  %82 = lshr i64 %81, 31
  %83 = and i64 %82, 1
  %84 = trunc i64 %83 to i32
  %85 = icmp ne i32 %84, 0
  br i1 %85, label %86, label %108

86:                                               ; preds = %77
  %87 = load ptr, ptr %5, align 8, !tbaa !3
  %88 = getelementptr inbounds nuw %struct.Curl_easy, ptr %87, i32 0, i32 21
  %89 = getelementptr inbounds nuw %struct.UrlState, ptr %88, i32 0, i32 50
  %90 = load ptr, ptr %89, align 8, !tbaa !94
  %91 = icmp ne ptr %90, null
  br i1 %91, label %92, label %100

92:                                               ; preds = %86
  %93 = load ptr, ptr %5, align 8, !tbaa !3
  %94 = getelementptr inbounds nuw %struct.Curl_easy, ptr %93, i32 0, i32 21
  %95 = getelementptr inbounds nuw %struct.UrlState, ptr %94, i32 0, i32 50
  %96 = load ptr, ptr %95, align 8, !tbaa !94
  %97 = getelementptr inbounds nuw %struct.curl_trc_feat, ptr %96, i32 0, i32 1
  %98 = load i32, ptr %97, align 8, !tbaa !95
  %99 = icmp sge i32 %98, 1
  br i1 %99, label %100, label %108

100:                                              ; preds = %92, %86
  %101 = load i32, ptr getelementptr inbounds nuw (%struct.curl_trc_feat, ptr @Curl_trc_feat_ws, i32 0, i32 1), align 8, !tbaa !95
  %102 = icmp sge i32 %101, 1
  br i1 %102, label %103, label %108

103:                                              ; preds = %100
  %104 = load ptr, ptr %5, align 8, !tbaa !3
  %105 = load ptr, ptr %6, align 8, !tbaa !92
  %106 = getelementptr inbounds nuw %struct.websocket, ptr %105, i32 0, i32 4
  %107 = call i64 @Curl_bufq_len(ptr noundef %106)
  call void (ptr, ptr, ...) @Curl_trc_ws(ptr noundef %104, ptr noundef @.str.56, i64 noundef %107)
  br label %108

108:                                              ; preds = %103, %100, %92, %77, %74
  br label %109

109:                                              ; preds = %108
  br label %110

110:                                              ; preds = %109
  %111 = load i32, ptr %8, align 4, !tbaa !10
  store i32 %111, ptr %4, align 4
  store i32 1, ptr %12, align 4
  br label %158

112:                                              ; preds = %70
  %113 = load i32, ptr %8, align 4, !tbaa !10
  %114 = icmp ne i32 %113, 0
  br i1 %114, label %115, label %119

115:                                              ; preds = %112
  %116 = load ptr, ptr %5, align 8, !tbaa !3
  %117 = load i32, ptr %8, align 4, !tbaa !10
  call void (ptr, ptr, ...) @Curl_failf(ptr noundef %116, ptr noundef @.str.57, i32 noundef %117)
  %118 = load i32, ptr %8, align 4, !tbaa !10
  store i32 %118, ptr %4, align 4
  store i32 1, ptr %12, align 4
  br label %158

119:                                              ; preds = %112
  br label %120

120:                                              ; preds = %119
  %121 = load ptr, ptr %5, align 8, !tbaa !3
  %122 = icmp ne ptr %121, null
  br i1 %122, label %123, label %149

123:                                              ; preds = %120
  %124 = load ptr, ptr %5, align 8, !tbaa !3
  %125 = getelementptr inbounds nuw %struct.Curl_easy, ptr %124, i32 0, i32 16
  %126 = getelementptr inbounds nuw %struct.UserDefined, ptr %125, i32 0, i32 119
  %127 = load i64, ptr %126, align 2
  %128 = lshr i64 %127, 31
  %129 = and i64 %128, 1
  %130 = trunc i64 %129 to i32
  %131 = icmp ne i32 %130, 0
  br i1 %131, label %132, label %149

132:                                              ; preds = %123
  %133 = load ptr, ptr %5, align 8, !tbaa !3
  %134 = getelementptr inbounds nuw %struct.Curl_easy, ptr %133, i32 0, i32 21
  %135 = getelementptr inbounds nuw %struct.UrlState, ptr %134, i32 0, i32 50
  %136 = load ptr, ptr %135, align 8, !tbaa !94
  %137 = icmp ne ptr %136, null
  br i1 %137, label %138, label %146

138:                                              ; preds = %132
  %139 = load ptr, ptr %5, align 8, !tbaa !3
  %140 = getelementptr inbounds nuw %struct.Curl_easy, ptr %139, i32 0, i32 21
  %141 = getelementptr inbounds nuw %struct.UrlState, ptr %140, i32 0, i32 50
  %142 = load ptr, ptr %141, align 8, !tbaa !94
  %143 = getelementptr inbounds nuw %struct.curl_trc_feat, ptr %142, i32 0, i32 1
  %144 = load i32, ptr %143, align 8, !tbaa !95
  %145 = icmp sge i32 %144, 1
  br i1 %145, label %146, label %149

146:                                              ; preds = %138, %132
  %147 = load ptr, ptr %5, align 8, !tbaa !3
  %148 = load i64, ptr %11, align 8, !tbaa !17
  call void (ptr, ptr, ...) @Curl_infof(ptr noundef %147, ptr noundef @.str.58, i64 noundef %148)
  br label %149

149:                                              ; preds = %146, %138, %123, %120
  br label %150

150:                                              ; preds = %149
  br label %151

151:                                              ; preds = %150
  %152 = load ptr, ptr %6, align 8, !tbaa !92
  %153 = getelementptr inbounds nuw %struct.websocket, ptr %152, i32 0, i32 4
  %154 = load i64, ptr %11, align 8, !tbaa !17
  call void @Curl_bufq_skip(ptr noundef %153, i64 noundef %154)
  br label %155

155:                                              ; preds = %151
  br label %156

156:                                              ; preds = %155
  br label %18, !llvm.loop !148

157:                                              ; preds = %18
  store i32 0, ptr %12, align 4
  br label %158

158:                                              ; preds = %157, %115, %110
  call void @llvm.lifetime.end.p0(i64 8, ptr %11) #6
  call void @llvm.lifetime.end.p0(i64 8, ptr %10) #6
  call void @llvm.lifetime.end.p0(i64 8, ptr %9) #6
  call void @llvm.lifetime.end.p0(i64 4, ptr %8) #6
  %159 = load i32, ptr %12, align 4
  switch i32 %159, label %164 [
    i32 0, label %160
    i32 1, label %162
  ]

160:                                              ; preds = %158
  br label %161

161:                                              ; preds = %160, %3
  store i32 0, ptr %4, align 4
  br label %162

162:                                              ; preds = %161, %158
  %163 = load i32, ptr %4, align 4
  ret i32 %163

164:                                              ; preds = %158
  unreachable
}