; Function Attrs: nounwind uwtable
define internal fastcc noundef i32 @ws_flush(ptr noundef %0, ptr noundef nonnull %1, i1 noundef zeroext %2) unnamed_addr #0 {
  %4 = alloca ptr, align 8
  %5 = alloca i64, align 8
  %6 = alloca i64, align 8
  %7 = getelementptr inbounds nuw i8, ptr %1, i64 152
  %8 = tail call zeroext i1 @Curl_bufq_is_empty(ptr noundef nonnull %7) #7
  br i1 %8, label %104, label %9

9:                                                ; preds = %3
  call void @llvm.lifetime.start.p0(i64 8, ptr nonnull %4) #7
  call void @llvm.lifetime.start.p0(i64 8, ptr nonnull %5) #7
  call void @llvm.lifetime.start.p0(i64 8, ptr nonnull %6) #7
  %10 = call zeroext i1 @Curl_bufq_peek(ptr noundef nonnull %7, ptr noundef nonnull %4, ptr noundef nonnull %5) #7
  br i1 %10, label %.lr.ph, label %.sink.split

.lr.ph:                                           ; preds = %9
  %11 = getelementptr inbounds nuw i8, ptr %0, i64 2658
  %.not46 = icmp eq ptr %0, null
  %12 = getelementptr inbounds nuw i8, ptr %0, i64 4864
  br i1 %2, label %.lr.ph.split.us, label %.lr.ph.split

.lr.ph.split.us:                                  ; preds = %.lr.ph
  br i1 %.not46, label %.lr.ph.split.us.split.us, label %.lr.ph.split.us.split

.lr.ph.split.us.split.us:                         ; preds = %.lr.ph.split.us, %18
  %13 = load ptr, ptr %4, align 8, !tbaa !12
  %14 = load i64, ptr %5, align 8, !tbaa !9
  %15 = call fastcc i32 @ws_send_raw_blocking(ptr noundef null, ptr noundef %13, i64 noundef %14)
  %.not44.us.us = icmp eq i32 %15, 0
  %16 = load i64, ptr %5, align 8
  %17 = select i1 %.not44.us.us, i64 %16, i64 0
  store i64 %17, ptr %6, align 8, !tbaa !9
  switch i32 %15, label %.split.us [
    i32 81, label %.sink.split
    i32 0, label %18
  ]

18:                                               ; preds = %.lr.ph.split.us.split.us
  call void @Curl_bufq_skip(ptr noundef nonnull %7, i64 noundef %16) #7
  %19 = call zeroext i1 @Curl_bufq_peek(ptr noundef nonnull %7, ptr noundef nonnull %4, ptr noundef nonnull %5) #7
  br i1 %19, label %.lr.ph.split.us.split.us, label %.sink.split, !llvm.loop !140

.lr.ph.split.us.split:                            ; preds = %.lr.ph.split.us, %35
  %20 = load ptr, ptr %4, align 8, !tbaa !12
  %21 = load i64, ptr %5, align 8, !tbaa !9
  %22 = call fastcc i32 @ws_send_raw_blocking(ptr noundef nonnull %0, ptr noundef %20, i64 noundef %21)
  %.not44.us = icmp eq i32 %22, 0
  %23 = load i64, ptr %5, align 8
  %24 = select i1 %.not44.us, i64 %23, i64 0
  store i64 %24, ptr %6, align 8, !tbaa !9
  switch i32 %22, label %.split.us [
    i32 81, label %.thread53
    i32 0, label %25
  ]

25:                                               ; preds = %.lr.ph.split.us.split
  %26 = load i64, ptr %11, align 2
  %27 = and i64 %26, 2147483648
  %.not47.us = icmp eq i64 %27, 0
  br i1 %.not47.us, label %35, label %28

28:                                               ; preds = %25
  %29 = load ptr, ptr %12, align 8, !tbaa !85
  %.not48.us = icmp eq ptr %29, null
  br i1 %.not48.us, label %34, label %30

30:                                               ; preds = %28
  %31 = getelementptr inbounds nuw i8, ptr %29, i64 8
  %32 = load i32, ptr %31, align 8, !tbaa !86
  %33 = icmp sgt i32 %32, 0
  br i1 %33, label %34, label %35

34:                                               ; preds = %30, %28
  call void (ptr, ptr, ...) @Curl_infof(ptr noundef nonnull %0, ptr noundef nonnull @.str.58, i64 noundef %23) #7
  %.pre = load i64, ptr %6, align 8, !tbaa !9
  br label %35

35:                                               ; preds = %34, %30, %25
  %36 = phi i64 [ %.pre, %34 ], [ %24, %30 ], [ %24, %25 ]
  call void @Curl_bufq_skip(ptr noundef nonnull %7, i64 noundef %36) #7
  %37 = call zeroext i1 @Curl_bufq_peek(ptr noundef nonnull %7, ptr noundef nonnull %4, ptr noundef nonnull %5) #7
  br i1 %37, label %.lr.ph.split.us.split, label %.sink.split, !llvm.loop !140

.lr.ph.split:                                     ; preds = %.lr.ph
  br i1 %.not46, label %.lr.ph.split.split.us, label %.lr.ph.split.split

.lr.ph.split.split.us:                            ; preds = %.lr.ph.split, %56
  %38 = load i64, ptr %11, align 2
  %39 = and i64 %38, 1
  %.not.us = icmp eq i64 %39, 0
  br i1 %.not.us, label %40, label %51

40:                                               ; preds = %.lr.ph.split.split.us
  %41 = call zeroext i1 @Curl_is_in_callback(ptr noundef nonnull null) #7
  br i1 %41, label %51, label %42

42:                                               ; preds = %40
  %43 = load ptr, ptr %4, align 8, !tbaa !12
  %44 = load i64, ptr %5, align 8, !tbaa !9
  %45 = call i32 @Curl_xfer_send(ptr noundef nonnull null, ptr noundef %43, i64 noundef %44, i1 noundef zeroext false, ptr noundef nonnull %6) #7
  %46 = icmp eq i32 %45, 0
  %47 = load i64, ptr %6, align 8
  %48 = icmp eq i64 %47, 0
  %or.cond.not43.us = select i1 %46, i1 %48, i1 false
  %49 = load i64, ptr %5, align 8
  %50 = icmp ne i64 %49, 0
  %or.cond3.us = select i1 %or.cond.not43.us, i1 %50, i1 false
  br i1 %or.cond3.us, label %.thread53, label %55

51:                                               ; preds = %40, %.lr.ph.split.split.us
  %52 = load ptr, ptr %4, align 8, !tbaa !12
  %53 = load i64, ptr %5, align 8, !tbaa !9
  %54 = call i32 @Curl_senddata(ptr noundef nonnull null, ptr noundef %52, i64 noundef %53, ptr noundef nonnull %6) #7
  br label %55

55:                                               ; preds = %51, %42
  %.035.us61 = phi i32 [ %54, %51 ], [ %45, %42 ]
  switch i32 %.035.us61, label %.split.us [
    i32 81, label %.thread53
    i32 0, label %56
  ]

56:                                               ; preds = %55
  %57 = load i64, ptr %6, align 8, !tbaa !9
  call void @Curl_bufq_skip(ptr noundef nonnull %7, i64 noundef %57) #7
  %58 = call zeroext i1 @Curl_bufq_peek(ptr noundef nonnull %7, ptr noundef nonnull %4, ptr noundef nonnull %5) #7
  br i1 %58, label %.lr.ph.split.split.us, label %.sink.split, !llvm.loop !140

.lr.ph.split.split:                               ; preds = %.lr.ph.split, %101
  %59 = load i64, ptr %11, align 2
  %60 = and i64 %59, 1
  %.not = icmp eq i64 %60, 0
  br i1 %.not, label %61, label %63

61:                                               ; preds = %.lr.ph.split.split
  %62 = call zeroext i1 @Curl_is_in_callback(ptr noundef nonnull %0) #7
  br i1 %62, label %63, label %67

63:                                               ; preds = %61, %.lr.ph.split.split
  %64 = load ptr, ptr %4, align 8, !tbaa !12
  %65 = load i64, ptr %5, align 8, !tbaa !9
  %66 = call i32 @Curl_senddata(ptr noundef nonnull %0, ptr noundef %64, i64 noundef %65, ptr noundef nonnull %6) #7
  br label %76

67:                                               ; preds = %61
  %68 = load ptr, ptr %4, align 8, !tbaa !12
  %69 = load i64, ptr %5, align 8, !tbaa !9
  %70 = call i32 @Curl_xfer_send(ptr noundef nonnull %0, ptr noundef %68, i64 noundef %69, i1 noundef zeroext false, ptr noundef nonnull %6) #7
  %71 = icmp eq i32 %70, 0
  %72 = load i64, ptr %6, align 8
  %73 = icmp eq i64 %72, 0
  %or.cond.not43 = select i1 %71, i1 %73, i1 false
  %74 = load i64, ptr %5, align 8
  %75 = icmp ne i64 %74, 0
  %or.cond3 = select i1 %or.cond.not43, i1 %75, i1 false
  br i1 %or.cond3, label %.thread53, label %76

76:                                               ; preds = %67, %63
  %.035 = phi i32 [ %66, %63 ], [ %70, %67 ]
  switch i32 %.035, label %.split.us [
    i32 81, label %.thread53
    i32 0, label %90
  ]

.thread53:                                        ; preds = %76, %67, %55, %42, %.lr.ph.split.us.split
  %77 = load i64, ptr %11, align 2
  %78 = and i64 %77, 2147483648
  %.not50 = icmp eq i64 %78, 0
  br i1 %.not50, label %.sink.split, label %79

79:                                               ; preds = %.thread53
  %80 = load ptr, ptr %12, align 8, !tbaa !85
  %.not51 = icmp eq ptr %80, null
  br i1 %.not51, label %87, label %81

81:                                               ; preds = %79
  %82 = getelementptr inbounds nuw i8, ptr %80, i64 8
  %83 = load i32, ptr %82, align 8, !tbaa !86
  %84 = icmp sgt i32 %83, 0
  %85 = load i32, ptr getelementptr inbounds nuw (i8, ptr @Curl_trc_feat_ws, i64 8), align 8
  %86 = icmp sgt i32 %85, 0
  %or.cond5 = select i1 %84, i1 %86, i1 false
  br i1 %or.cond5, label %88, label %.sink.split

87:                                               ; preds = %79
  %.old = load i32, ptr getelementptr inbounds nuw (i8, ptr @Curl_trc_feat_ws, i64 8), align 8, !tbaa !86
  %.old4 = icmp sgt i32 %.old, 0
  br i1 %.old4, label %88, label %.sink.split

88:                                               ; preds = %81, %87
  %89 = call i64 @Curl_bufq_len(ptr noundef nonnull %7) #7
  call void (ptr, ptr, ...) @Curl_trc_ws(ptr noundef nonnull %0, ptr noundef nonnull @.str.56, i64 noundef %89) #7
  br label %.sink.split

.split.us:                                        ; preds = %76, %55, %.lr.ph.split.us.split, %.lr.ph.split.us.split.us
  %.us-phi = phi i32 [ %15, %.lr.ph.split.us.split.us ], [ %22, %.lr.ph.split.us.split ], [ %.035.us61, %55 ], [ %.035, %76 ]
  call void (ptr, ptr, ...) @Curl_failf(ptr noundef %0, ptr noundef nonnull @.str.57, i32 noundef %.us-phi) #7
  br label %.sink.split

90:                                               ; preds = %76
  %91 = load i64, ptr %11, align 2
  %92 = and i64 %91, 2147483648
  %.not47 = icmp eq i64 %92, 0
  br i1 %.not47, label %101, label %93

93:                                               ; preds = %90
  %94 = load ptr, ptr %12, align 8, !tbaa !85
  %.not48 = icmp eq ptr %94, null
  br i1 %.not48, label %99, label %95

95:                                               ; preds = %93
  %96 = getelementptr inbounds nuw i8, ptr %94, i64 8
  %97 = load i32, ptr %96, align 8, !tbaa !86
  %98 = icmp sgt i32 %97, 0
  br i1 %98, label %99, label %101

99:                                               ; preds = %95, %93
  %100 = load i64, ptr %6, align 8, !tbaa !9
  call void (ptr, ptr, ...) @Curl_infof(ptr noundef nonnull %0, ptr noundef nonnull @.str.58, i64 noundef %100) #7
  br label %101

101:                                              ; preds = %99, %95, %90
  %102 = load i64, ptr %6, align 8, !tbaa !9
  call void @Curl_bufq_skip(ptr noundef nonnull %7, i64 noundef %102) #7
  %103 = call zeroext i1 @Curl_bufq_peek(ptr noundef nonnull %7, ptr noundef nonnull %4, ptr noundef nonnull %5) #7
  br i1 %103, label %.lr.ph.split.split, label %.sink.split, !llvm.loop !140

.sink.split:                                      ; preds = %101, %56, %35, %18, %.lr.ph.split.us.split.us, %9, %.split.us, %88, %87, %81, %.thread53
  %.1.ph = phi i32 [ 81, %.thread53 ], [ 81, %81 ], [ 81, %87 ], [ 81, %88 ], [ %.us-phi, %.split.us ], [ 0, %9 ], [ 0, %18 ], [ %15, %.lr.ph.split.us.split.us ], [ 0, %35 ], [ 0, %56 ], [ 0, %101 ]
  call void @llvm.lifetime.end.p0(i64 8, ptr nonnull %6) #7
  call void @llvm.lifetime.end.p0(i64 8, ptr nonnull %5) #7
  call void @llvm.lifetime.end.p0(i64 8, ptr nonnull %4) #7
  br label %104

104:                                              ; preds = %.sink.split, %3
  %.1 = phi i32 [ 0, %3 ], [ %.1.ph, %.sink.split ]
  ret i32 %.1
}